; Function Attrs: mustprogress uwtable
define internal noundef zeroext i1 @"_ZNSt17_Function_handlerIFvRKN2cv5RangeEEZNS0_3ccm11elementWiseIZNKS5_9sRGBBase_9fromLFuncERNS0_3MatES8_E3$_0EES8_RKS8_OT_S8_EUlS3_E_E10_M_managerERSt9_Any_dataRKSH_St18_Manager_operation"(ptr noundef nonnull align 8 captures(none) dereferenceable(16) %0, ptr noundef nonnull readonly align 8 captures(none) dereferenceable(16) %1, i32 noundef %2) #3 align 2 {
  switch i32 %2, label %"_ZNSt14_Function_base13_Base_managerIZN2cv3ccm11elementWiseIZNKS2_9sRGBBase_9fromLFuncERNS1_3MatES5_E3$_0EES5_RKS5_OT_S5_EUlRKNS1_5RangeEE_E10_M_managerERSt9_Any_dataRKSH_St18_Manager_operation.exit" [
    i32 0, label %4
    i32 1, label %5
    i32 3, label %8
    i32 2, label %6
  ]

4:                                                ; preds = %3
  store ptr @"_ZTIZN2cv3ccm11elementWiseIZNKS0_9sRGBBase_9fromLFuncERNS_3MatES3_E3$_0EES3_RKS3_OT_S3_EUlRKNS_5RangeEE_", ptr %0, align 8, !tbaa !436
  br label %"_ZNSt14_Function_base13_Base_managerIZN2cv3ccm11elementWiseIZNKS2_9sRGBBase_9fromLFuncERNS1_3MatES5_E3$_0EES5_RKS5_OT_S5_EUlRKNS1_5RangeEE_E10_M_managerERSt9_Any_dataRKSH_St18_Manager_operation.exit"

5:                                                ; preds = %3
  %.val = load ptr, ptr %1, align 8, !tbaa !148
  store ptr %.val, ptr %0, align 8, !tbaa !148
  br label %"_ZNSt14_Function_base13_Base_managerIZN2cv3ccm11elementWiseIZNKS2_9sRGBBase_9fromLFuncERNS1_3MatES5_E3$_0EES5_RKS5_OT_S5_EUlRKNS1_5RangeEE_E10_M_managerERSt9_Any_dataRKSH_St18_Manager_operation.exit"

6:                                                ; preds = %3
  %.val6 = load ptr, ptr %1, align 8
  %7 = tail call noalias noundef nonnull dereferenceable(40) ptr @_Znwm(i64 noundef 40) #33
  tail call void @llvm.memcpy.p0.p0.i64(ptr noundef nonnull align 16 dereferenceable(40) %7, ptr noundef nonnull readonly align 8 dereferenceable(40) %.val6, i64 40, i1 false), !tbaa.struct !478
  store ptr %7, ptr %0, align 8, !tbaa !148
  br label %"_ZNSt14_Function_base13_Base_managerIZN2cv3ccm11elementWiseIZNKS2_9sRGBBase_9fromLFuncERNS1_3MatES5_E3$_0EES5_RKS5_OT_S5_EUlRKNS1_5RangeEE_E10_M_managerERSt9_Any_dataRKSH_St18_Manager_operation.exit"

8:                                                ; preds = %3
  %.val7.i = load ptr, ptr %0, align 8, !tbaa !148
  %9 = icmp eq ptr %.val7.i, null
  br i1 %9, label %"_ZNSt14_Function_base13_Base_managerIZN2cv3ccm11elementWiseIZNKS2_9sRGBBase_9fromLFuncERNS1_3MatES5_E3$_0EES5_RKS5_OT_S5_EUlRKNS1_5RangeEE_E10_M_managerERSt9_Any_dataRKSH_St18_Manager_operation.exit", label %10

10:                                               ; preds = %8
  tail call void @_ZdlPv(ptr noundef nonnull %.val7.i) #34
  br label %"_ZNSt14_Function_base13_Base_managerIZN2cv3ccm11elementWiseIZNKS2_9sRGBBase_9fromLFuncERNS1_3MatES5_E3$_0EES5_RKS5_OT_S5_EUlRKNS1_5RangeEE_E10_M_managerERSt9_Any_dataRKSH_St18_Manager_operation.exit"

"_ZNSt14_Function_base13_Base_managerIZN2cv3ccm11elementWiseIZNKS2_9sRGBBase_9fromLFuncERNS1_3MatES5_E3$_0EES5_RKS5_OT_S5_EUlRKNS1_5RangeEE_E10_M_managerERSt9_Any_dataRKSH_St18_Manager_operation.exit": ; preds = %3, %10, %8, %6, %5, %4
  ret i1 false
}